target datalayout = "e-m:e-p270:32:32-p271:32:32-p272:64:64-i64:64-i128:128-f80:128-n8:16:32:64-S128"
target triple = "x86_64-pc-linux-gnu"

; Function Attrs: nounwind uwtable
define internal i32 @pixelize_min16(ptr noundef %0, ptr noundef %1, i64 noundef %2, i64 noundef %3, i32 noundef %4, i32 noundef %5) #1 {
  %7 = alloca ptr, align 8
  %8 = alloca ptr, align 8
  %9 = alloca i64, align 8
  %10 = alloca i64, align 8
  %11 = alloca i32, align 4
  %12 = alloca i32, align 4
  %13 = alloca ptr, align 8
  %14 = alloca ptr, align 8
  %15 = alloca i16, align 2
  %16 = alloca i32, align 4
  %17 = alloca i32, align 4
  %18 = alloca i32, align 4
  %19 = alloca i32, align 4
  %20 = alloca i32, align 4
  store ptr %0, ptr %7, align 8, !tbaa !53
  store ptr %1, ptr %8, align 8, !tbaa !53
  store i64 %2, ptr %9, align 8, !tbaa !51
  store i64 %3, ptr %10, align 8, !tbaa !51
  store i32 %4, ptr %11, align 4, !tbaa !37
  store i32 %5, ptr %12, align 4, !tbaa !37
  call void @llvm.lifetime.start.p0(i64 8, ptr %13) #5
  %21 = load ptr, ptr %7, align 8, !tbaa !53
  store ptr %21, ptr %13, align 8, !tbaa !75
  call void @llvm.lifetime.start.p0(i64 8, ptr %14) #5
  %22 = load ptr, ptr %8, align 8, !tbaa !53
  store ptr %22, ptr %14, align 8, !tbaa !75
  call void @llvm.lifetime.start.p0(i64 2, ptr %15) #5
  %23 = load ptr, ptr %13, align 8, !tbaa !75
  %24 = getelementptr inbounds i16, ptr %23, i64 0
  %25 = load i16, ptr %24, align 2, !tbaa !77
  store i16 %25, ptr %15, align 2, !tbaa !77
  call void @llvm.lifetime.start.p0(i64 4, ptr %16) #5
  store i32 0, ptr %16, align 4, !tbaa !37
  br label %26

26:                                               ; preds = %68, %6
  %27 = load i32, ptr %16, align 4, !tbaa !37
  %28 = load i32, ptr %12, align 4, !tbaa !37
  %29 = icmp slt i32 %27, %28
  br i1 %29, label %31, label %30

30:                                               ; preds = %26
  store i32 2, ptr %17, align 4
  call void @llvm.lifetime.end.p0(i64 4, ptr %16) #5
  br label %71

31:                                               ; preds = %26
  call void @llvm.lifetime.start.p0(i64 4, ptr %18) #5
  store i32 0, ptr %18, align 4, !tbaa !37
  br label %32

32:                                               ; preds = %60, %31
  %33 = load i32, ptr %18, align 4, !tbaa !37
  %34 = load i32, ptr %11, align 4, !tbaa !37
  %35 = icmp slt i32 %33, %34
  br i1 %35, label %37, label %36

36:                                               ; preds = %32
  store i32 5, ptr %17, align 4
  call void @llvm.lifetime.end.p0(i64 4, ptr %18) #5
  br label %63

37:                                               ; preds = %32
  %38 = load ptr, ptr %13, align 8, !tbaa !75
  %39 = load i32, ptr %18, align 4, !tbaa !37
  %40 = sext i32 %39 to i64
  %41 = getelementptr inbounds i16, ptr %38, i64 %40
  %42 = load i16, ptr %41, align 2, !tbaa !77
  %43 = zext i16 %42 to i32
  %44 = load i16, ptr %15, align 2, !tbaa !77
  %45 = zext i16 %44 to i32
  %46 = icmp sgt i32 %43, %45
  br i1 %46, label %47, label %50

47:                                               ; preds = %37
  %48 = load i16, ptr %15, align 2, !tbaa !77
  %49 = zext i16 %48 to i32
  br label %57

50:                                               ; preds = %37
  %51 = load ptr, ptr %13, align 8, !tbaa !75
  %52 = load i32, ptr %18, align 4, !tbaa !37
  %53 = sext i32 %52 to i64
  %54 = getelementptr inbounds i16, ptr %51, i64 %53
  %55 = load i16, ptr %54, align 2, !tbaa !77
  %56 = zext i16 %55 to i32
  br label %57

57:                                               ; preds = %50, %47
  %58 = phi i32 [ %49, %47 ], [ %56, %50 ]
  %59 = trunc i32 %58 to i16
  store i16 %59, ptr %15, align 2, !tbaa !77
  br label %60

60:                                               ; preds = %57
  %61 = load i32, ptr %18, align 4, !tbaa !37
  %62 = add nsw i32 %61, 1
  store i32 %62, ptr %18, align 4, !tbaa !37
  br label %32, !llvm.loop !87

63:                                               ; preds = %36
  %64 = load i64, ptr %9, align 8, !tbaa !51
  %65 = udiv i64 %64, 2
  %66 = load ptr, ptr %13, align 8, !tbaa !75
  %67 = getelementptr inbounds nuw i16, ptr %66, i64 %65
  store ptr %67, ptr %13, align 8, !tbaa !75
  br label %68

68:                                               ; preds = %63
  %69 = load i32, ptr %16, align 4, !tbaa !37
  %70 = add nsw i32 %69, 1
  store i32 %70, ptr %16, align 4, !tbaa !37
  br label %26, !llvm.loop !88

71:                                               ; preds = %30
  call void @llvm.lifetime.start.p0(i64 4, ptr %19) #5
  store i32 0, ptr %19, align 4, !tbaa !37
  br label %72

72:                                               ; preds = %97, %71
  %73 = load i32, ptr %19, align 4, !tbaa !37
  %74 = load i32, ptr %12, align 4, !tbaa !37
  %75 = icmp slt i32 %73, %74
  br i1 %75, label %77, label %76

76:                                               ; preds = %72
  store i32 8, ptr %17, align 4
  call void @llvm.lifetime.end.p0(i64 4, ptr %19) #5
  br label %100

77:                                               ; preds = %72
  call void @llvm.lifetime.start.p0(i64 4, ptr %20) #5
  store i32 0, ptr %20, align 4, !tbaa !37
  br label %78

78:                                               ; preds = %89, %77
  %79 = load i32, ptr %20, align 4, !tbaa !37
  %80 = load i32, ptr %11, align 4, !tbaa !37
  %81 = icmp slt i32 %79, %80
  br i1 %81, label %83, label %82

82:                                               ; preds = %78
  store i32 11, ptr %17, align 4
  call void @llvm.lifetime.end.p0(i64 4, ptr %20) #5
  br label %92

83:                                               ; preds = %78
  %84 = load i16, ptr %15, align 2, !tbaa !77
  %85 = load ptr, ptr %14, align 8, !tbaa !75
  %86 = load i32, ptr %20, align 4, !tbaa !37
  %87 = sext i32 %86 to i64
  %88 = getelementptr inbounds i16, ptr %85, i64 %87
  store i16 %84, ptr %88, align 2, !tbaa !77
  br label %89

89:                                               ; preds = %83
  %90 = load i32, ptr %20, align 4, !tbaa !37
  %91 = add nsw i32 %90, 1
  store i32 %91, ptr %20, align 4, !tbaa !37
  br label %78, !llvm.loop !89

92:                                               ; preds = %82
  %93 = load i64, ptr %10, align 8, !tbaa !51
  %94 = udiv i64 %93, 2
  %95 = load ptr, ptr %14, align 8, !tbaa !75
  %96 = getelementptr inbounds nuw i16, ptr %95, i64 %94
  store ptr %96, ptr %14, align 8, !tbaa !75
  br label %97

97:                                               ; preds = %92
  %98 = load i32, ptr %19, align 4, !tbaa !37
  %99 = add nsw i32 %98, 1
  store i32 %99, ptr %19, align 4, !tbaa !37
  br label %72, !llvm.loop !90

100:                                              ; preds = %76
  store i32 1, ptr %17, align 4
  call void @llvm.lifetime.end.p0(i64 2, ptr %15) #5
  call void @llvm.lifetime.end.p0(i64 8, ptr %14) #5
  call void @llvm.lifetime.end.p0(i64 8, ptr %13) #5
  ret i32 0
}